target datalayout = "e-m:e-p270:32:32-p271:32:32-p272:64:64-i64:64-i128:128-f80:128-n8:16:32:64-S128"
target triple = "x86_64-pc-linux-gnu"

%struct.pmix_pointer_array_t = type { %struct.pmix_object_t, i32, i32, i32, i32, i32, ptr, ptr }
%struct.pmix_object_t = type { %union.pthread_mutex_t, ptr, i32, %struct.pmix_tma }
%union.pthread_mutex_t = type { %struct.__pthread_mutex_s }
%struct.__pthread_mutex_s = type { i32, i32, i32, i32, i32, i16, i16, %struct.__pthread_internal_list }
%struct.__pthread_internal_list = type { ptr, ptr }
%struct.pmix_tma = type { ptr, ptr, ptr, ptr, ptr, ptr, ptr, ptr }
%struct.pmix_proc = type { [256 x i8], i32 }
%struct.pmix_list_t = type { %struct.pmix_object_t, %struct.pmix_list_item_t, i64 }
%struct.pmix_list_item_t = type { %struct.pmix_object_t, ptr, ptr, i32 }
%struct.pmix_output_desc_t = type { i8, i8, i32, i8, i32, ptr, ptr, i32, ptr, i32, i8, i8, i8, i8, ptr, i32, i32 }
%struct.timeval = type { i64, i64 }
%struct.pmix_server_globals_t = type { i8, i32, i32, %struct.pmix_pointer_array_t, %struct.pmix_pointer_array_t, i32, i8, %struct.pmix_proc, %struct.pmix_list_t, i8, i8, i8, i8, i8, %struct.pmix_proc, i8, ptr, ptr, i64, %struct.pmix_list_t, %struct.pmix_list_t, %struct.pmix_list_t }
%struct.pmix_server_req_t = type { %struct.pmix_object_t, %struct.event, i8, %struct.event, i8, i8, i8, ptr, ptr, ptr, i32, i32, i32, i32, i32, i8, i8, i8, i8, i32, i32, i32, i8, i32, ptr, i64, ptr, i64, i8, %struct.pmix_proc, %struct.pmix_proc, %struct.pmix_proc, ptr, %struct.pmix_data_buffer, ptr, ptr, ptr, ptr, ptr, ptr, ptr, ptr, ptr }
%struct.event = type { %struct.event_callback, %union.anon.0, i32, ptr, %union.anon.2, i16, i16, %struct.timeval }
%struct.event_callback = type { %struct.anon, i16, i8, i8, %union.anon, ptr }
%struct.anon = type { ptr, ptr }
%union.anon = type { ptr }
%union.anon.0 = type { %struct.anon.1 }
%struct.anon.1 = type { ptr, ptr }
%union.anon.2 = type { %struct.anon.3 }
%struct.anon.3 = type { %struct.anon.4, %struct.timeval }
%struct.anon.4 = type { ptr, ptr }
%struct.pmix_data_buffer = type { ptr, ptr, ptr, i64, i64 }

@pmix_output_info = external global [0 x %struct.pmix_output_desc_t], align 8
@.str.257 = private unnamed_addr constant [51 x i8] c"REQUEST TIMED OUT - LOCAL REFID %d REMOTE REFID %d\00", align 1

; Function Attrs: nounwind uwtable
define internal void @timeout_cbfunc(i32 noundef %0, i16 noundef signext %1, ptr noundef %2) #0 {
  %4 = alloca i32, align 4
  %5 = alloca i16, align 2
  %6 = alloca ptr, align 8
  %7 = alloca ptr, align 8
  %8 = alloca i32, align 4
  store i32 %0, ptr %4, align 4, !tbaa !29
  store i16 %1, ptr %5, align 2, !tbaa !237
  store ptr %2, ptr %6, align 8, !tbaa !36
  call void @llvm.lifetime.start.p0(i64 8, ptr %7) #13
  %9 = load ptr, ptr %6, align 8, !tbaa !36
  store ptr %9, ptr %7, align 8, !tbaa !36
  %10 = load i32, ptr getelementptr inbounds nuw (%struct.pmix_server_globals_t, ptr @prte_pmix_server_globals, i32 0, i32 2), align 8, !tbaa !21
  %11 = icmp sge i32 %10, 0
  br i1 %11, label %12, label %30

12:                                               ; preds = %3
  %13 = load i32, ptr getelementptr inbounds nuw (%struct.pmix_server_globals_t, ptr @prte_pmix_server_globals, i32 0, i32 2), align 8, !tbaa !21
  %14 = icmp slt i32 %13, 64
  br i1 %14, label %15, label %30

15:                                               ; preds = %12
  %16 = load i32, ptr getelementptr inbounds nuw (%struct.pmix_server_globals_t, ptr @prte_pmix_server_globals, i32 0, i32 2), align 8, !tbaa !21
  %17 = sext i32 %16 to i64
  %18 = getelementptr inbounds [0 x %struct.pmix_output_desc_t], ptr @pmix_output_info, i64 0, i64 %17
  %19 = getelementptr inbounds nuw %struct.pmix_output_desc_t, ptr %18, i32 0, i32 2
  %20 = load i32, ptr %19, align 4, !tbaa !128
  %21 = icmp sge i32 %20, 2
  br i1 %21, label %22, label %30

22:                                               ; preds = %15
  %23 = load i32, ptr getelementptr inbounds nuw (%struct.pmix_server_globals_t, ptr @prte_pmix_server_globals, i32 0, i32 2), align 8, !tbaa !21
  %24 = load ptr, ptr %7, align 8, !tbaa !36
  %25 = getelementptr inbounds nuw %struct.pmix_server_req_t, ptr %24, i32 0, i32 13
  %26 = load i32, ptr %25, align 4, !tbaa !138
  %27 = load ptr, ptr %7, align 8, !tbaa !36
  %28 = getelementptr inbounds nuw %struct.pmix_server_req_t, ptr %27, i32 0, i32 14
  %29 = load i32, ptr %28, align 8, !tbaa !137
  call void (i32, ptr, ...) @pmix_output(i32 noundef %23, ptr noundef @.str.257, i32 noundef %26, i32 noundef %29)
  br label %30

30:                                               ; preds = %22, %15, %12, %3
  %31 = load ptr, ptr %7, align 8, !tbaa !36
  %32 = getelementptr inbounds nuw %struct.pmix_server_req_t, ptr %31, i32 0, i32 6
  store i8 1, ptr %32, align 2, !tbaa !195
  %33 = load ptr, ptr %7, align 8, !tbaa !36
  %34 = getelementptr inbounds nuw %struct.pmix_server_req_t, ptr %33, i32 0, i32 14
  %35 = load i32, ptr %34, align 8, !tbaa !137
  %36 = icmp sle i32 0, %35
  br i1 %36, label %37, label %45

37:                                               ; preds = %30
  %38 = load ptr, ptr %7, align 8, !tbaa !36
  %39 = getelementptr inbounds nuw %struct.pmix_server_req_t, ptr %38, i32 0, i32 31
  %40 = load ptr, ptr %7, align 8, !tbaa !36
  %41 = getelementptr inbounds nuw %struct.pmix_server_req_t, ptr %40, i32 0, i32 29
  %42 = load ptr, ptr %7, align 8, !tbaa !36
  %43 = getelementptr inbounds nuw %struct.pmix_server_req_t, ptr %42, i32 0, i32 14
  %44 = load i32, ptr %43, align 8, !tbaa !137
  call void @send_error(i32 noundef -24, ptr noundef %39, ptr noundef %41, i32 noundef %44)
  store i32 1, ptr %8, align 4
  br label %97

45:                                               ; preds = %30
  %46 = load ptr, ptr %7, align 8, !tbaa !36
  %47 = getelementptr inbounds nuw %struct.pmix_server_req_t, ptr %46, i32 0, i32 34
  %48 = load ptr, ptr %47, align 8, !tbaa !212
  %49 = icmp ne ptr null, %48
  br i1 %49, label %50, label %57

50:                                               ; preds = %45
  %51 = load ptr, ptr %7, align 8, !tbaa !36
  %52 = getelementptr inbounds nuw %struct.pmix_server_req_t, ptr %51, i32 0, i32 34
  %53 = load ptr, ptr %52, align 8, !tbaa !212
  %54 = load ptr, ptr %7, align 8, !tbaa !36
  %55 = getelementptr inbounds nuw %struct.pmix_server_req_t, ptr %54, i32 0, i32 41
  %56 = load ptr, ptr %55, align 8, !tbaa !155
  call void %53(i32 noundef -24, ptr noundef %56)
  br label %96

57:                                               ; preds = %45
  %58 = load ptr, ptr %7, align 8, !tbaa !36
  %59 = getelementptr inbounds nuw %struct.pmix_server_req_t, ptr %58, i32 0, i32 35
  %60 = load ptr, ptr %59, align 8, !tbaa !154
  %61 = icmp ne ptr null, %60
  br i1 %61, label %62, label %69

62:                                               ; preds = %57
  %63 = load ptr, ptr %7, align 8, !tbaa !36
  %64 = getelementptr inbounds nuw %struct.pmix_server_req_t, ptr %63, i32 0, i32 35
  %65 = load ptr, ptr %64, align 8, !tbaa !154
  %66 = load ptr, ptr %7, align 8, !tbaa !36
  %67 = getelementptr inbounds nuw %struct.pmix_server_req_t, ptr %66, i32 0, i32 41
  %68 = load ptr, ptr %67, align 8, !tbaa !155
  call void %65(i32 noundef -24, ptr noundef null, i64 noundef 0, ptr noundef %68, ptr noundef null, ptr noundef null)
  br label %95

69:                                               ; preds = %57
  %70 = load ptr, ptr %7, align 8, !tbaa !36
  %71 = getelementptr inbounds nuw %struct.pmix_server_req_t, ptr %70, i32 0, i32 36
  %72 = load ptr, ptr %71, align 8, !tbaa !213
  %73 = icmp ne ptr null, %72
  br i1 %73, label %74, label %81

74:                                               ; preds = %69
  %75 = load ptr, ptr %7, align 8, !tbaa !36
  %76 = getelementptr inbounds nuw %struct.pmix_server_req_t, ptr %75, i32 0, i32 36
  %77 = load ptr, ptr %76, align 8, !tbaa !213
  %78 = load ptr, ptr %7, align 8, !tbaa !36
  %79 = getelementptr inbounds nuw %struct.pmix_server_req_t, ptr %78, i32 0, i32 41
  %80 = load ptr, ptr %79, align 8, !tbaa !155
  call void %77(i32 noundef -24, ptr noundef null, ptr noundef %80)
  br label %94

81:                                               ; preds = %69
  %82 = load ptr, ptr %7, align 8, !tbaa !36
  %83 = getelementptr inbounds nuw %struct.pmix_server_req_t, ptr %82, i32 0, i32 37
  %84 = load ptr, ptr %83, align 8, !tbaa !214
  %85 = icmp ne ptr null, %84
  br i1 %85, label %86, label %93

86:                                               ; preds = %81
  %87 = load ptr, ptr %7, align 8, !tbaa !36
  %88 = getelementptr inbounds nuw %struct.pmix_server_req_t, ptr %87, i32 0, i32 37
  %89 = load ptr, ptr %88, align 8, !tbaa !214
  %90 = load ptr, ptr %7, align 8, !tbaa !36
  %91 = getelementptr inbounds nuw %struct.pmix_server_req_t, ptr %90, i32 0, i32 41
  %92 = load ptr, ptr %91, align 8, !tbaa !155
  call void %89(i32 noundef -24, ptr noundef null, i64 noundef 0, ptr noundef %92)
  br label %93

93:                                               ; preds = %86, %81
  br label %94

94:                                               ; preds = %93, %74
  br label %95

95:                                               ; preds = %94, %62
  br label %96

96:                                               ; preds = %95, %50
  store i32 0, ptr %8, align 4
  br label %97

97:                                               ; preds = %96, %37
  call void @llvm.lifetime.end.p0(i64 8, ptr %7) #13
  %98 = load i32, ptr %8, align 4
  switch i32 %98, label %100 [
    i32 0, label %99
    i32 1, label %99
  ]

99:                                               ; preds = %97, %97
  ret void

100:                                              ; preds = %97
  unreachable
}