; Function Attrs: nounwind uwtable
define internal void @timeout_cbfunc(i32 %0, i16 signext %1, ptr noundef initializes((386, 387)) %2) #0 {
  %4 = load i32, ptr getelementptr inbounds nuw (i8, ptr @prte_pmix_server_globals, i64 8), align 8, !tbaa !21
  %or.cond = icmp ult i32 %4, 64
  br i1 %or.cond, label %5, label %15

5:                                                ; preds = %3
  %6 = zext nneg i32 %4 to i64
  %7 = getelementptr inbounds nuw [0 x %struct.pmix_output_desc_t], ptr @pmix_output_info, i64 0, i64 %6, i32 2
  %8 = load i32, ptr %7, align 4, !tbaa !106
  %9 = icmp sgt i32 %8, 1
  br i1 %9, label %10, label %15

10:                                               ; preds = %5
  %11 = getelementptr inbounds nuw i8, ptr %2, i64 428
  %12 = load i32, ptr %11, align 4, !tbaa !115
  %13 = getelementptr inbounds nuw i8, ptr %2, i64 432
  %14 = load i32, ptr %13, align 8, !tbaa !114
  tail call void (i32, ptr, ...) @pmix_output(i32 noundef %4, ptr noundef nonnull @.str.257, i32 noundef %12, i32 noundef %14) #17
  br label %15

15:                                               ; preds = %10, %5, %3
  %16 = getelementptr inbounds nuw i8, ptr %2, i64 386
  store i8 1, ptr %16, align 2, !tbaa !160
  %17 = getelementptr inbounds nuw i8, ptr %2, i64 432
  %18 = load i32, ptr %17, align 8, !tbaa !114
  %19 = icmp sgt i32 %18, -1
  br i1 %19, label %20, label %23

20:                                               ; preds = %15
  %21 = getelementptr inbounds nuw i8, ptr %2, i64 1020
  %22 = getelementptr inbounds nuw i8, ptr %2, i64 500
  tail call fastcc void @send_error(i32 noundef -24, ptr noundef nonnull %21, ptr noundef nonnull %22, i32 noundef %18)
  br label %47

23:                                               ; preds = %15
  %24 = getelementptr inbounds nuw i8, ptr %2, i64 1328
  %25 = load ptr, ptr %24, align 8, !tbaa !180
  %.not = icmp eq ptr %25, null
  br i1 %.not, label %29, label %26

26:                                               ; preds = %23
  %27 = getelementptr inbounds nuw i8, ptr %2, i64 1384
  %28 = load ptr, ptr %27, align 8, !tbaa !136
  tail call void %25(i32 noundef -24, ptr noundef %28) #17
  br label %47

29:                                               ; preds = %23
  %30 = getelementptr inbounds nuw i8, ptr %2, i64 1336
  %31 = load ptr, ptr %30, align 8, !tbaa !135
  %.not26 = icmp eq ptr %31, null
  br i1 %.not26, label %35, label %32

32:                                               ; preds = %29
  %33 = getelementptr inbounds nuw i8, ptr %2, i64 1384
  %34 = load ptr, ptr %33, align 8, !tbaa !136
  tail call void %31(i32 noundef -24, ptr noundef null, i64 noundef 0, ptr noundef %34, ptr noundef null, ptr noundef null) #17
  br label %47

35:                                               ; preds = %29
  %36 = getelementptr inbounds nuw i8, ptr %2, i64 1344
  %37 = load ptr, ptr %36, align 8, !tbaa !181
  %.not27 = icmp eq ptr %37, null
  br i1 %.not27, label %41, label %38

38:                                               ; preds = %35
  %39 = getelementptr inbounds nuw i8, ptr %2, i64 1384
  %40 = load ptr, ptr %39, align 8, !tbaa !136
  tail call void %37(i32 noundef -24, ptr noundef null, ptr noundef %40) #17
  br label %47

41:                                               ; preds = %35
  %42 = getelementptr inbounds nuw i8, ptr %2, i64 1352
  %43 = load ptr, ptr %42, align 8, !tbaa !182
  %.not28 = icmp eq ptr %43, null
  br i1 %.not28, label %47, label %44

44:                                               ; preds = %41
  %45 = getelementptr inbounds nuw i8, ptr %2, i64 1384
  %46 = load ptr, ptr %45, align 8, !tbaa !136
  tail call void %43(i32 noundef -24, ptr noundef null, i64 noundef 0, ptr noundef %46) #17
  br label %47

47:                                               ; preds = %26, %38, %44, %41, %32, %20
  ret void
}